target datalayout = "e-m:e-p270:32:32-p271:32:32-p272:64:64-i64:64-i128:128-f80:128-n8:16:32:64-S128"
target triple = "x86_64-pc-linux-gnu"

%struct.cli_bc_ctx = type { i8, i16, i32, ptr, ptr, i32, i32, ptr, ptr, ptr, i32, i32, i64, ptr, ptr, ptr, %struct.cli_bc_hooks, %struct.cli_exe_info, [64 x i32], [64 x i32], i32, ptr, ptr, i32, i32, i32, i32, ptr, i32, ptr, ptr, i32, i32, i32, i32, i32, i32, ptr, ptr, ptr, ptr, ptr, ptr, ptr, i32, i32, i32, i32, ptr, ptr, ptr, ptr, ptr, i32, i32, i32, i32, ptr, ptr, ptr, ptr, i32, i32, i32, ptr, i32, ptr, i32, i32, ptr, i32 }
%struct.cli_bc_hooks = type { ptr, ptr, ptr, ptr, ptr }
%struct.cli_exe_info = type { ptr, i32, i32, i16, i32, i32, %struct.cli_hashset, i32, i32, i32, i32, i32, i32, i32, i32, i32, %struct.pe_image_file_hdr, %union.anon, [16 x %struct.pe_image_data_dir] }
%struct.cli_hashset = type { ptr, ptr, ptr, i32, i32, i32, i32 }
%struct.pe_image_file_hdr = type { i32, i16, i16, i32, i32, i32, i16, i16 }
%union.anon = type { %struct.pe_image_optional_hdr64 }
%struct.pe_image_optional_hdr64 = type { i16, i8, i8, i32, i32, i32, i32, i32, i64, i32, i32, i16, i16, i16, i16, i16, i16, i32, i32, i32, i32, i16, i16, i64, i64, i64, i64, i32, i32 }
%struct.pe_image_data_dir = type { i32, i32 }
%struct.pdf_obj = type { i32, i64, i32, i32, i32, i32, [64 x i32], ptr, i64, ptr, ptr, i8 }

; Function Attrs: nounwind uwtable
define i32 @cli_bcapi_pdf_getobjsize(ptr noundef %0, i32 noundef %1) #0 {
  %3 = alloca i32, align 4
  %4 = alloca ptr, align 8
  %5 = alloca i32, align 4
  store ptr %0, ptr %4, align 8
  store i32 %1, ptr %5, align 4
  %6 = load ptr, ptr %4, align 8
  %7 = getelementptr inbounds %struct.cli_bc_ctx, ptr %6, i32 0, i32 25
  %8 = load i32, ptr %7, align 8
  %9 = icmp ne i32 %8, 0
  br i1 %9, label %10, label %21

10:                                               ; preds = %2
  %11 = load i32, ptr %5, align 4
  %12 = load ptr, ptr %4, align 8
  %13 = getelementptr inbounds %struct.cli_bc_ctx, ptr %12, i32 0, i32 20
  %14 = load i32, ptr %13, align 8
  %15 = icmp uge i32 %11, %14
  br i1 %15, label %21, label %16

16:                                               ; preds = %10
  %17 = load ptr, ptr %4, align 8
  %18 = getelementptr inbounds %struct.cli_bc_ctx, ptr %17, i32 0, i32 25
  %19 = load i32, ptr %18, align 8
  %20 = icmp eq i32 %19, 2
  br i1 %20, label %21, label %22

21:                                               ; preds = %16, %10, %2
  store i32 0, ptr %3, align 4
  br label %65

22:                                               ; preds = %16
  %23 = load i32, ptr %5, align 4
  %24 = add nsw i32 %23, 1
  %25 = load ptr, ptr %4, align 8
  %26 = getelementptr inbounds %struct.cli_bc_ctx, ptr %25, i32 0, i32 20
  %27 = load i32, ptr %26, align 8
  %28 = icmp eq i32 %24, %27
  br i1 %28, label %29, label %43

29:                                               ; preds = %22
  %30 = load ptr, ptr %4, align 8
  %31 = getelementptr inbounds %struct.cli_bc_ctx, ptr %30, i32 0, i32 23
  %32 = load i32, ptr %31, align 8
  %33 = load ptr, ptr %4, align 8
  %34 = getelementptr inbounds %struct.cli_bc_ctx, ptr %33, i32 0, i32 21
  %35 = load ptr, ptr %34, align 8
  %36 = load i32, ptr %5, align 4
  %37 = sext i32 %36 to i64
  %38 = getelementptr inbounds ptr, ptr %35, i64 %37
  %39 = load ptr, ptr %38, align 8
  %40 = getelementptr inbounds %struct.pdf_obj, ptr %39, i32 0, i32 0
  %41 = load i32, ptr %40, align 8
  %42 = sub i32 %32, %41
  store i32 %42, ptr %3, align 4
  br label %65

43:                                               ; preds = %22
  %44 = load ptr, ptr %4, align 8
  %45 = getelementptr inbounds %struct.cli_bc_ctx, ptr %44, i32 0, i32 21
  %46 = load ptr, ptr %45, align 8
  %47 = load i32, ptr %5, align 4
  %48 = add nsw i32 %47, 1
  %49 = sext i32 %48 to i64
  %50 = getelementptr inbounds ptr, ptr %46, i64 %49
  %51 = load ptr, ptr %50, align 8
  %52 = getelementptr inbounds %struct.pdf_obj, ptr %51, i32 0, i32 0
  %53 = load i32, ptr %52, align 8
  %54 = load ptr, ptr %4, align 8
  %55 = getelementptr inbounds %struct.cli_bc_ctx, ptr %54, i32 0, i32 21
  %56 = load ptr, ptr %55, align 8
  %57 = load i32, ptr %5, align 4
  %58 = sext i32 %57 to i64
  %59 = getelementptr inbounds ptr, ptr %56, i64 %58
  %60 = load ptr, ptr %59, align 8
  %61 = getelementptr inbounds %struct.pdf_obj, ptr %60, i32 0, i32 0
  %62 = load i32, ptr %61, align 8
  %63 = sub i32 %53, %62
  %64 = sub i32 %63, 4
  store i32 %64, ptr %3, align 4
  br label %65

65:                                               ; preds = %43, %29, %21
  %66 = load i32, ptr %3, align 4
  ret i32 %66
}