; Function Attrs: mustprogress nofree norecurse nosync nounwind willreturn memory(read, inaccessiblemem: none) uwtable
define i32 @cli_bcapi_pdf_getobjsize(ptr nocapture noundef readonly %0, i32 noundef %1) local_unnamed_addr #21 {
  %3 = getelementptr inbounds i8, ptr %0, i64 1056
  %4 = load i32, ptr %3, align 8
  %.not = icmp eq i32 %4, 0
  br i1 %.not, label %35, label %5

5:                                                ; preds = %2
  %6 = getelementptr inbounds i8, ptr %0, i64 1024
  %7 = load i32, ptr %6, align 8
  %.not17 = icmp ule i32 %7, %1
  %8 = icmp eq i32 %4, 2
  %or.cond = or i1 %8, %.not17
  br i1 %or.cond, label %35, label %9

9:                                                ; preds = %5
  %10 = add nuw nsw i32 %1, 1
  %11 = icmp eq i32 %10, %7
  br i1 %11, label %12, label %22

12:                                               ; preds = %9
  %13 = getelementptr inbounds i8, ptr %0, i64 1048
  %14 = load i32, ptr %13, align 8
  %15 = getelementptr inbounds i8, ptr %0, i64 1032
  %16 = load ptr, ptr %15, align 8
  %17 = sext i32 %1 to i64
  %18 = getelementptr inbounds ptr, ptr %16, i64 %17
  %19 = load ptr, ptr %18, align 8
  %20 = load i32, ptr %19, align 8
  %21 = sub i32 %14, %20
  br label %35

22:                                               ; preds = %9
  %23 = getelementptr inbounds i8, ptr %0, i64 1032
  %24 = load ptr, ptr %23, align 8
  %25 = sext i32 %10 to i64
  %26 = getelementptr inbounds ptr, ptr %24, i64 %25
  %27 = load ptr, ptr %26, align 8
  %28 = load i32, ptr %27, align 8
  %29 = sext i32 %1 to i64
  %30 = getelementptr inbounds ptr, ptr %24, i64 %29
  %31 = load ptr, ptr %30, align 8
  %32 = load i32, ptr %31, align 8
  %33 = add i32 %28, -4
  %34 = sub i32 %33, %32
  br label %35

35:                                               ; preds = %2, %5, %22, %12
  %.0 = phi i32 [ %21, %12 ], [ %34, %22 ], [ 0, %5 ], [ 0, %2 ]
  ret i32 %.0
}